target datalayout = "e-m:e-p270:32:32-p271:32:32-p272:64:64-i64:64-i128:128-f80:128-n8:16:32:64-S128"
target triple = "x86_64-unknown-linux-gnu"

; Function Attrs: mustprogress uwtable
define void @_Z30alts_handshaker_client_destroyP22alts_handshaker_client(ptr noundef %c) #4 {
entry:
  %c.addr = alloca ptr, align 8
  %client = alloca ptr, align 8
  store ptr %c, ptr %c.addr, align 8
  %0 = load ptr, ptr %c.addr, align 8
  %cmp = icmp ne ptr %0, null
  br i1 %cmp, label %if.then, label %if.end

if.then:                                          ; preds = %entry
  %1 = load ptr, ptr %c.addr, align 8
  store ptr %1, ptr %client, align 8
  %2 = load ptr, ptr %client, align 8
  call void @_ZL33alts_grpc_handshaker_client_unrefP27alts_grpc_handshaker_client(ptr noundef %2)
  br label %if.end

if.end:                                           ; preds = %if.then, %entry
  ret void
}