; Function Attrs: mustprogress uwtable
define void @_Z30alts_handshaker_client_destroyP22alts_handshaker_client(ptr noundef %c) local_unnamed_addr #3 {
entry:
  %cmp.not = icmp eq ptr %c, null
  br i1 %cmp.not, label %if.end, label %if.then

if.then:                                          ; preds = %entry
  tail call fastcc void @_ZL33alts_grpc_handshaker_client_unrefP27alts_grpc_handshaker_client(ptr noundef nonnull %c)
  br label %if.end

if.end:                                           ; preds = %if.then, %entry
  ret void
}